target datalayout = "e-m:e-p270:32:32-p271:32:32-p272:64:64-i64:64-i128:128-f80:128-n8:16:32:64-S128"
target triple = "x86_64-unknown-linux-gnu"

%"class.icu_75::BucketList" = type { %"class.icu_75::UObject", ptr, ptr }
%"class.icu_75::UObject" = type { ptr }

@_ZTVN6icu_7510BucketListE = unnamed_addr constant { [5 x ptr] } { [5 x ptr] [ptr null, ptr @_ZTIN6icu_7510BucketListE, ptr @_ZN6icu_7510BucketListD1Ev, ptr @_ZN6icu_7510BucketListD0Ev, ptr @_ZNK6icu_757UObject17getDynamicClassIDEv] }, align 8

; Function Attrs: mustprogress nounwind uwtable
define void @_ZN6icu_7510BucketListD2Ev(ptr noundef nonnull align 8 dereferenceable(24) %this) unnamed_addr #0 align 2 {
entry:
  %this.addr = alloca ptr, align 8
  store ptr %this, ptr %this.addr, align 8
  %this1 = load ptr, ptr %this.addr, align 8
  store ptr getelementptr inbounds ({ [5 x ptr] }, ptr @_ZTVN6icu_7510BucketListE, i32 0, i32 0, i32 2), ptr %this1, align 8
  %bucketList_ = getelementptr inbounds %"class.icu_75::BucketList", ptr %this1, i32 0, i32 1
  %0 = load ptr, ptr %bucketList_, align 8
  %isnull = icmp eq ptr %0, null
  br i1 %isnull, label %delete.end, label %delete.notnull

delete.notnull:                                   ; preds = %entry
  %vtable = load ptr, ptr %0, align 8
  %vfn = getelementptr inbounds ptr, ptr %vtable, i64 1
  %1 = load ptr, ptr %vfn, align 8
  call void %1(ptr noundef nonnull align 8 dereferenceable(40) %0) #7
  br label %delete.end

delete.end:                                       ; preds = %delete.notnull, %entry
  %immutableVisibleList_ = getelementptr inbounds %"class.icu_75::BucketList", ptr %this1, i32 0, i32 2
  %2 = load ptr, ptr %immutableVisibleList_, align 8
  %bucketList_2 = getelementptr inbounds %"class.icu_75::BucketList", ptr %this1, i32 0, i32 1
  %3 = load ptr, ptr %bucketList_2, align 8
  %cmp = icmp ne ptr %2, %3
  br i1 %cmp, label %if.then, label %if.end

if.then:                                          ; preds = %delete.end
  %immutableVisibleList_3 = getelementptr inbounds %"class.icu_75::BucketList", ptr %this1, i32 0, i32 2
  %4 = load ptr, ptr %immutableVisibleList_3, align 8
  %isnull4 = icmp eq ptr %4, null
  br i1 %isnull4, label %delete.end8, label %delete.notnull5

delete.notnull5:                                  ; preds = %if.then
  %vtable6 = load ptr, ptr %4, align 8
  %vfn7 = getelementptr inbounds ptr, ptr %vtable6, i64 1
  %5 = load ptr, ptr %vfn7, align 8
  call void %5(ptr noundef nonnull align 8 dereferenceable(40) %4) #7
  br label %delete.end8

delete.end8:                                      ; preds = %delete.notnull5, %if.then
  br label %if.end

if.end:                                           ; preds = %delete.end8, %delete.end
  call void @_ZN6icu_757UObjectD2Ev(ptr noundef nonnull align 8 dereferenceable(8) %this1) #7
  ret void
}