; Function Attrs: mustprogress nounwind uwtable
define void @_ZN6icu_7510BucketListD2Ev(ptr noundef nonnull align 8 dereferenceable(24) %this) unnamed_addr #0 align 2 {
entry:
  store ptr getelementptr inbounds ({ [5 x ptr] }, ptr @_ZTVN6icu_7510BucketListE, i64 0, i32 0, i64 2), ptr %this, align 8
  %bucketList_ = getelementptr inbounds i8, ptr %this, i64 8
  %0 = load ptr, ptr %bucketList_, align 8
  %isnull = icmp eq ptr %0, null
  br i1 %isnull, label %delete.end, label %delete.notnull

delete.notnull:                                   ; preds = %entry
  %vtable = load ptr, ptr %0, align 8
  %vfn = getelementptr inbounds i8, ptr %vtable, i64 8
  %1 = load ptr, ptr %vfn, align 8
  tail call void %1(ptr noundef nonnull align 8 dereferenceable(40) %0) #16
  %.pre = load ptr, ptr %bucketList_, align 8
  br label %delete.end

delete.end:                                       ; preds = %delete.notnull, %entry
  %2 = phi ptr [ %.pre, %delete.notnull ], [ null, %entry ]
  %immutableVisibleList_ = getelementptr inbounds i8, ptr %this, i64 16
  %3 = load ptr, ptr %immutableVisibleList_, align 8
  %cmp.not = icmp eq ptr %3, %2
  %isnull4 = icmp eq ptr %3, null
  %or.cond = or i1 %isnull4, %cmp.not
  br i1 %or.cond, label %if.end, label %delete.notnull5

delete.notnull5:                                  ; preds = %delete.end
  %vtable6 = load ptr, ptr %3, align 8
  %vfn7 = getelementptr inbounds i8, ptr %vtable6, i64 8
  %4 = load ptr, ptr %vfn7, align 8
  tail call void %4(ptr noundef nonnull align 8 dereferenceable(40) %3) #16
  br label %if.end

if.end:                                           ; preds = %delete.notnull5, %delete.end
  tail call void @_ZN6icu_757UObjectD2Ev(ptr noundef nonnull align 8 dereferenceable(8) %this) #16
  ret void
}